target datalayout = "e-m:e-p270:32:32-p271:32:32-p272:64:64-i64:64-i128:128-f80:128-n8:16:32:64-S128"
target triple = "x86_64-pc-linux-gnu"

%struct._zend_executor_globals = type { %struct._zval_struct, %struct._zval_struct, [32 x ptr], ptr, ptr, %struct._zend_array, %struct._zend_array, ptr, i32, i32, ptr, ptr, ptr, ptr, ptr, ptr, i64, ptr, ptr, i32, i32, i64, i32, i32, i32, i8, i8, %struct.zend_atomic_bool_s, %struct.zend_atomic_bool_s, ptr, i64, ptr, ptr, %struct._zend_array, %struct._zend_array, i32, i8, %struct._zval_struct, %struct._zval_struct, %struct._zend_stack, %struct._zend_stack, %struct._zend_stack, ptr, i32, i32, i64, ptr, ptr, ptr, %struct._zend_objects_store, ptr, ptr, ptr, [3 x %struct._zend_op], ptr, i8, i8, i64, i32, i32, ptr, [16 x %struct._HashTableIterator], ptr, %union._zend_function, %struct._zend_op, %struct._zend_array, i64, %struct.zend_get_gc_buffer, ptr, ptr, ptr, i64, i8, i32, ptr, ptr, i64, %struct._zend_call_stack, i64, i64, [6 x ptr] }
%struct.zend_atomic_bool_s = type { i8 }
%struct._zval_struct = type { %union._zend_value, %union.anon, %union.anon.2 }
%union._zend_value = type { i64 }
%union.anon = type { i32 }
%union.anon.2 = type { i32 }
%struct._zend_stack = type { i32, i32, i32, ptr }
%struct._zend_objects_store = type { ptr, i32, i32, i32 }
%struct._HashTableIterator = type { ptr, i32, i32 }
%union._zend_function = type { %struct._zend_op_array }
%struct._zend_op_array = type { i8, [3 x i8], i32, ptr, ptr, ptr, i32, i32, ptr, ptr, ptr, ptr, i32, i32, i32, i32, ptr, ptr, ptr, ptr, ptr, i32, i32, ptr, ptr, ptr, i32, i32, i32, i32, ptr, ptr, [6 x ptr] }
%struct._zend_op = type { ptr, %union._znode_op, %union._znode_op, %union._znode_op, i32, i32, i8, i8, i8, i8 }
%union._znode_op = type { i32 }
%struct._zend_array = type { %struct._zend_refcounted_h, %union.anon.5, i32, %union.anon.7, i32, i32, i32, i32, i64, ptr }
%struct._zend_refcounted_h = type { i32, %union.anon.3 }
%union.anon.3 = type { i32 }
%union.anon.5 = type { i32 }
%union.anon.7 = type { ptr }
%struct.zend_get_gc_buffer = type { ptr, ptr, ptr }
%struct._zend_call_stack = type { ptr, i64 }
%struct._zend_execute_data = type { ptr, ptr, ptr, ptr, %struct._zval_struct, ptr, ptr, ptr, ptr }
%struct._zend_object = type { %struct._zend_refcounted_h, i32, ptr, ptr, ptr, [1 x %struct._zval_struct] }
%struct._zend_class_entry = type { i8, ptr, %union.anon.4, i32, i32, i32, i32, ptr, ptr, ptr, %struct._zend_array, %struct._zend_array, %struct._zend_array, ptr, ptr, ptr, ptr, ptr, ptr, ptr, ptr, ptr, ptr, ptr, ptr, ptr, ptr, ptr, ptr, ptr, ptr, ptr, %union.anon.8, ptr, ptr, ptr, ptr, i32, i32, %union.anon.9, ptr, ptr, ptr, ptr, i32, ptr, ptr, %union.anon.10 }
%union.anon.4 = type { ptr }
%union.anon.8 = type { ptr }
%union.anon.9 = type { ptr }
%union.anon.10 = type { %struct.anon.11 }
%struct.anon.11 = type { ptr, i32, i32 }
%struct._zend_string = type { %struct._zend_refcounted_h, i64, i64, [1 x i8] }
%struct._zend_refcounted = type { %struct._zend_refcounted_h }

@random_ce_Random_Engine = external global ptr, align 8
@random_ce_Random_Engine_Secure = external global ptr, align 8
@random_ce_Random_Randomizer = external global ptr, align 8
@.str = private unnamed_addr constant [7 x i8] c"engine\00", align 1
@executor_globals = external global %struct._zend_executor_globals, align 8

; Function Attrs: nounwind uwtable
define internal ptr @php_random_randomizer_from_obj(ptr noundef %0) #0 {
  %2 = alloca ptr, align 8
  store ptr %0, ptr %2, align 8
  %3 = load ptr, ptr %2, align 8
  %4 = getelementptr inbounds i8, ptr %3, i64 -24
  ret ptr %4
}

; Function Attrs: nounwind uwtable
define hidden void @zim_Random_Randomizer___construct(ptr noundef %0, ptr noundef %1) #0 {
  %3 = alloca ptr, align 8
  %4 = alloca ptr, align 8
  %5 = alloca ptr, align 8
  %6 = alloca ptr, align 8
  %7 = alloca ptr, align 8
  %8 = alloca ptr, align 8
  %9 = alloca ptr, align 8
  %10 = alloca i1, align 1
  %11 = alloca ptr, align 8
  %12 = alloca ptr, align 8
  %13 = alloca ptr, align 8
  %14 = alloca i8, align 1
  %15 = alloca ptr, align 8
  %16 = alloca ptr, align 8
  %17 = alloca ptr, align 8
  %18 = alloca %struct._zval_struct, align 8
  %19 = alloca ptr, align 8
  %20 = alloca i32, align 4
  %21 = alloca i32, align 4
  %22 = alloca i32, align 4
  %23 = alloca i32, align 4
  %24 = alloca i32, align 4
  %25 = alloca ptr, align 8
  %26 = alloca ptr, align 8
  %27 = alloca i32, align 4
  %28 = alloca ptr, align 8
  %29 = alloca i8, align 1
  %30 = alloca i8, align 1
  %31 = alloca i32, align 4
  %32 = alloca ptr, align 8
  %33 = alloca ptr, align 8
  %34 = alloca ptr, align 8
  %35 = alloca i32, align 4
  store ptr %0, ptr %15, align 8
  store ptr %1, ptr %16, align 8
  %36 = load ptr, ptr %15, align 8
  %37 = getelementptr inbounds %struct._zend_execute_data, ptr %36, i32 0, i32 4
  %38 = getelementptr inbounds %struct._zval_struct, ptr %37, i32 0, i32 0
  %39 = load ptr, ptr %38, align 8
  %40 = call ptr @php_random_randomizer_from_obj(ptr noundef %39)
  store ptr %40, ptr %17, align 8
  store ptr null, ptr %19, align 8
  br label %41

41:                                               ; preds = %2
  store i32 0, ptr %20, align 4
  store i32 0, ptr %21, align 4
  store i32 1, ptr %22, align 4
  %42 = load ptr, ptr %15, align 8
  %43 = getelementptr inbounds %struct._zend_execute_data, ptr %42, i32 0, i32 4
  %44 = getelementptr inbounds %struct._zval_struct, ptr %43, i32 0, i32 2
  %45 = load i32, ptr %44, align 4
  store i32 %45, ptr %23, align 4
  store i32 0, ptr %24, align 4
  store ptr null, ptr %26, align 8
  store i32 0, ptr %27, align 4
  store ptr null, ptr %28, align 8
  store i8 0, ptr %29, align 1
  store i8 0, ptr %30, align 1
  store i32 0, ptr %31, align 4
  br label %46

46:                                               ; preds = %41
  %47 = load i32, ptr %23, align 4
  %48 = load i32, ptr %21, align 4
  %49 = icmp ult i32 %47, %48
  %50 = xor i1 %49, true
  %51 = xor i1 %50, true
  %52 = zext i1 %51 to i32
  %53 = sext i32 %52 to i64
  %54 = icmp ne i64 %53, 0
  br i1 %54, label %64, label %55

55:                                               ; preds = %46
  %56 = load i32, ptr %23, align 4
  %57 = load i32, ptr %22, align 4
  %58 = icmp ugt i32 %56, %57
  %59 = xor i1 %58, true
  %60 = xor i1 %59, true
  %61 = zext i1 %60 to i32
  %62 = sext i32 %61 to i64
  %63 = icmp ne i64 %62, 0
  br i1 %63, label %64, label %67

64:                                               ; preds = %55, %46
  %65 = load i32, ptr %21, align 4
  %66 = load i32, ptr %22, align 4
  call void @zend_wrong_parameters_count_error(i32 noundef %65, i32 noundef %66)
  store i32 1, ptr %31, align 4
  br label %179

67:                                               ; preds = %55
  %68 = load ptr, ptr %15, align 8
  %69 = getelementptr inbounds %struct._zval_struct, ptr %68, i64 4
  store ptr %69, ptr %25, align 8
  store i8 1, ptr %30, align 1
  %70 = load i32, ptr %24, align 4
  %71 = add i32 %70, 1
  store i32 %71, ptr %24, align 4
  %72 = load i32, ptr %24, align 4
  %73 = load i32, ptr %21, align 4
  %74 = icmp ule i32 %72, %73
  br i1 %74, label %80, label %75

75:                                               ; preds = %67
  %76 = load i8, ptr %30, align 1
  %77 = trunc i8 %76 to i1
  %78 = zext i1 %77 to i32
  %79 = icmp eq i32 %78, 1
  br label %80

80:                                               ; preds = %75, %67
  %81 = phi i1 [ true, %67 ], [ %79, %75 ]
  call void @llvm.assume(i1 %81)
  %82 = load i32, ptr %24, align 4
  %83 = load i32, ptr %21, align 4
  %84 = icmp ugt i32 %82, %83
  br i1 %84, label %90, label %85

85:                                               ; preds = %80
  %86 = load i8, ptr %30, align 1
  %87 = trunc i8 %86 to i1
  %88 = zext i1 %87 to i32
  %89 = icmp eq i32 %88, 0
  br label %90

90:                                               ; preds = %85, %80
  %91 = phi i1 [ true, %80 ], [ %89, %85 ]
  call void @llvm.assume(i1 %91)
  %92 = load i8, ptr %30, align 1
  %93 = trunc i8 %92 to i1
  br i1 %93, label %94, label %105

94:                                               ; preds = %90
  %95 = load i32, ptr %24, align 4
  %96 = load i32, ptr %23, align 4
  %97 = icmp ugt i32 %95, %96
  %98 = xor i1 %97, true
  %99 = xor i1 %98, true
  %100 = zext i1 %99 to i32
  %101 = sext i32 %100 to i64
  %102 = icmp ne i64 %101, 0
  br i1 %102, label %103, label %104

103:                                              ; preds = %94
  br label %179

104:                                              ; preds = %94
  br label %105

105:                                              ; preds = %104, %90
  %106 = load ptr, ptr %25, align 8
  %107 = getelementptr inbounds %struct._zval_struct, ptr %106, i32 1
  store ptr %107, ptr %25, align 8
  %108 = load ptr, ptr %25, align 8
  store ptr %108, ptr %26, align 8
  %109 = load ptr, ptr %26, align 8
  %110 = load ptr, ptr @random_ce_Random_Engine, align 8
  store ptr %109, ptr %11, align 8
  store ptr %19, ptr %12, align 8
  store ptr %110, ptr %13, align 8
  store i8 1, ptr %14, align 1
  %111 = load ptr, ptr %11, align 8
  store ptr %111, ptr %6, align 8
  %112 = load ptr, ptr %6, align 8
  %113 = getelementptr inbounds %struct._zval_struct, ptr %112, i32 0, i32 1
  %114 = load i8, ptr %113, align 8
  %115 = zext i8 %114 to i32
  %116 = icmp eq i32 %115, 8
  br i1 %116, label %117, label %138

117:                                              ; preds = %105
  %118 = load ptr, ptr %13, align 8
  %119 = icmp ne ptr %118, null
  br i1 %119, label %120, label %135

120:                                              ; preds = %117
  %121 = load ptr, ptr %11, align 8
  %122 = load ptr, ptr %121, align 8
  %123 = getelementptr inbounds %struct._zend_object, ptr %122, i32 0, i32 2
  %124 = load ptr, ptr %123, align 8
  %125 = load ptr, ptr %13, align 8
  store ptr %124, ptr %4, align 8
  store ptr %125, ptr %5, align 8
  %126 = load ptr, ptr %4, align 8
  %127 = load ptr, ptr %5, align 8
  %128 = icmp eq ptr %126, %127
  br i1 %128, label %133, label %129

129:                                              ; preds = %120
  %130 = load ptr, ptr %4, align 8
  %131 = load ptr, ptr %5, align 8
  %132 = call zeroext i1 @instanceof_function_slow(ptr noundef %130, ptr noundef %131) #8
  br label %133

133:                                              ; preds = %129, %120
  %134 = phi i1 [ true, %120 ], [ %132, %129 ]
  br i1 %134, label %135, label %138

135:                                              ; preds = %133, %117
  %136 = load ptr, ptr %11, align 8
  %137 = load ptr, ptr %12, align 8
  store ptr %136, ptr %137, align 8
  br label %151

138:                                              ; preds = %133, %105
  %139 = load i8, ptr %14, align 1
  %140 = trunc i8 %139 to i1
  br i1 %140, label %141, label %150

141:                                              ; preds = %138
  %142 = load ptr, ptr %11, align 8
  store ptr %142, ptr %7, align 8
  %143 = load ptr, ptr %7, align 8
  %144 = getelementptr inbounds %struct._zval_struct, ptr %143, i32 0, i32 1
  %145 = load i8, ptr %144, align 8
  %146 = zext i8 %145 to i32
  %147 = icmp eq i32 %146, 1
  br i1 %147, label %148, label %150

148:                                              ; preds = %141
  %149 = load ptr, ptr %12, align 8
  store ptr null, ptr %149, align 8
  br label %151

150:                                              ; preds = %141, %138
  store i1 false, ptr %10, align 1
  br label %152

151:                                              ; preds = %148, %135
  store i1 true, ptr %10, align 1
  br label %152

152:                                              ; preds = %151, %150
  %153 = load i1, ptr %10, align 1
  %154 = xor i1 %153, true
  %155 = xor i1 %154, true
  %156 = xor i1 %155, true
  %157 = zext i1 %156 to i32
  %158 = sext i32 %157 to i64
  %159 = icmp ne i64 %158, 0
  br i1 %159, label %160, label %170

160:                                              ; preds = %152
  %161 = load ptr, ptr @random_ce_Random_Engine, align 8
  %162 = icmp ne ptr %161, null
  br i1 %162, label %163, label %169

163:                                              ; preds = %160
  %164 = load ptr, ptr @random_ce_Random_Engine, align 8
  %165 = getelementptr inbounds %struct._zend_class_entry, ptr %164, i32 0, i32 1
  %166 = load ptr, ptr %165, align 8
  %167 = getelementptr inbounds %struct._zend_string, ptr %166, i32 0, i32 3
  %168 = getelementptr inbounds [1 x i8], ptr %167, i64 0, i64 0
  store ptr %168, ptr %28, align 8
  store i32 4, ptr %31, align 4
  br label %179

169:                                              ; preds = %160
  store i32 19, ptr %27, align 4
  store i32 9, ptr %31, align 4
  br label %179

170:                                              ; preds = %152
  %171 = load i32, ptr %24, align 4
  %172 = load i32, ptr %22, align 4
  %173 = icmp eq i32 %171, %172
  br i1 %173, label %177, label %174

174:                                              ; preds = %170
  %175 = load i32, ptr %22, align 4
  %176 = icmp eq i32 %175, -1
  br label %177

177:                                              ; preds = %174, %170
  %178 = phi i1 [ true, %170 ], [ %176, %174 ]
  call void @llvm.assume(i1 %178)
  br label %179

179:                                              ; preds = %177, %169, %163, %103, %64
  %180 = load i32, ptr %31, align 4
  %181 = icmp ne i32 %180, 0
  %182 = xor i1 %181, true
  %183 = xor i1 %182, true
  %184 = zext i1 %183 to i32
  %185 = sext i32 %184 to i64
  %186 = icmp ne i64 %185, 0
  br i1 %186, label %187, label %193

187:                                              ; preds = %179
  %188 = load i32, ptr %31, align 4
  %189 = load i32, ptr %24, align 4
  %190 = load ptr, ptr %28, align 8
  %191 = load i32, ptr %27, align 4
  %192 = load ptr, ptr %26, align 8
  call void @zend_wrong_parameter_error(i32 noundef %188, i32 noundef %189, ptr noundef %190, i32 noundef %191, ptr noundef %192)
  br label %267

193:                                              ; preds = %179
  br label %194

194:                                              ; preds = %193
  %195 = load ptr, ptr %19, align 8
  %196 = icmp ne ptr %195, null
  br i1 %196, label %197, label %225

197:                                              ; preds = %194
  br label %198

198:                                              ; preds = %197
  store ptr %18, ptr %32, align 8
  %199 = load ptr, ptr %19, align 8
  store ptr %199, ptr %33, align 8
  %200 = load ptr, ptr %33, align 8
  %201 = getelementptr inbounds %struct._zval_struct, ptr %200, i32 0, i32 0
  %202 = load ptr, ptr %201, align 8
  store ptr %202, ptr %34, align 8
  %203 = load ptr, ptr %33, align 8
  %204 = getelementptr inbounds %struct._zval_struct, ptr %203, i32 0, i32 1
  %205 = load i32, ptr %204, align 8
  store i32 %205, ptr %35, align 4
  br label %206

206:                                              ; preds = %198
  %207 = load ptr, ptr %34, align 8
  %208 = load ptr, ptr %32, align 8
  %209 = getelementptr inbounds %struct._zval_struct, ptr %208, i32 0, i32 0
  store ptr %207, ptr %209, align 8
  %210 = load i32, ptr %35, align 4
  %211 = load ptr, ptr %32, align 8
  %212 = getelementptr inbounds %struct._zval_struct, ptr %211, i32 0, i32 1
  store i32 %210, ptr %212, align 8
  br label %213

213:                                              ; preds = %206
  %214 = load i32, ptr %35, align 4
  %215 = and i32 %214, 65280
  %216 = icmp ne i32 %215, 0
  br i1 %216, label %217, label %223

217:                                              ; preds = %213
  %218 = load ptr, ptr %34, align 8
  %219 = getelementptr inbounds %struct._zend_refcounted, ptr %218, i32 0, i32 0
  store ptr %219, ptr %9, align 8
  %220 = load ptr, ptr %9, align 8
  %221 = load i32, ptr %220, align 4
  %222 = add i32 %221, 1
  store i32 %222, ptr %220, align 4
  br label %223

223:                                              ; preds = %217, %213
  br label %224

224:                                              ; preds = %223
  br label %228

225:                                              ; preds = %194
  %226 = load ptr, ptr @random_ce_Random_Engine_Secure, align 8
  %227 = call i32 @object_init_ex(ptr noundef %18, ptr noundef %226)
  br label %228

228:                                              ; preds = %225, %224
  %229 = load ptr, ptr @random_ce_Random_Randomizer, align 8
  %230 = load ptr, ptr %15, align 8
  %231 = getelementptr inbounds %struct._zend_execute_data, ptr %230, i32 0, i32 4
  %232 = getelementptr inbounds %struct._zval_struct, ptr %231, i32 0, i32 0
  %233 = load ptr, ptr %232, align 8
  call void @zend_update_property(ptr noundef %229, ptr noundef %233, ptr noundef @.str, i64 noundef 6, ptr noundef %18)
  %234 = getelementptr inbounds %struct._zval_struct, ptr %18, i32 0, i32 0
  %235 = load ptr, ptr %234, align 8
  store ptr %235, ptr %8, align 8
  %236 = load ptr, ptr %8, align 8
  store ptr %236, ptr %3, align 8
  %237 = load ptr, ptr %3, align 8
  %238 = load i32, ptr %237, align 4
  %239 = icmp ugt i32 %238, 0
  call void @llvm.assume(i1 %239)
  %240 = load ptr, ptr %3, align 8
  %241 = load i32, ptr %240, align 4
  %242 = add i32 %241, -1
  store i32 %242, ptr %240, align 4
  %243 = icmp eq i32 %242, 0
  br i1 %243, label %244, label %246

244:                                              ; preds = %228
  %245 = load ptr, ptr %8, align 8
  call void @zend_objects_store_del(ptr noundef %245) #8
  br label %255

246:                                              ; preds = %228
  %247 = load ptr, ptr %8, align 8
  %248 = getelementptr inbounds %struct._zend_refcounted_h, ptr %247, i32 0, i32 1
  %249 = load i32, ptr %248, align 4
  %250 = and i32 %249, -1008
  %251 = icmp eq i32 %250, 0
  br i1 %251, label %252, label %254

252:                                              ; preds = %246
  %253 = load ptr, ptr %8, align 8
  call void @gc_possible_root(ptr noundef %253) #8
  br label %254

254:                                              ; preds = %252, %246
  br label %255

255:                                              ; preds = %254, %244
  %256 = load ptr, ptr getelementptr inbounds (%struct._zend_executor_globals, ptr @executor_globals, i32 0, i32 50), align 8
  %257 = icmp ne ptr %256, null
  br i1 %257, label %258, label %263

258:                                              ; preds = %255
  br label %259

259:                                              ; preds = %258
  %260 = load ptr, ptr getelementptr inbounds (%struct._zend_executor_globals, ptr @executor_globals, i32 0, i32 50), align 8
  %261 = icmp ne ptr %260, null
  call void @llvm.assume(i1 %261)
  br label %267

262:                                              ; No predecessors!
  br label %263

263:                                              ; preds = %262, %255
  %264 = load ptr, ptr %17, align 8
  %265 = getelementptr inbounds %struct._zval_struct, ptr %18, i32 0, i32 0
  %266 = load ptr, ptr %265, align 8
  call void @randomizer_common_init(ptr noundef %264, ptr noundef %266)
  br label %267

267:                                              ; preds = %263, %259, %187
  ret void
}