; Function Attrs: nounwind uwtable
define hidden void @zim_Random_Randomizer___construct(ptr noundef %0, ptr nocapture noundef readnone %1) local_unnamed_addr #0 {
  %3 = alloca %struct._zval_struct, align 8
  %4 = getelementptr inbounds i8, ptr %0, i64 32
  %5 = load ptr, ptr %4, align 8
  %6 = getelementptr inbounds i8, ptr %5, i64 -24
  %7 = getelementptr inbounds i8, ptr %0, i64 44
  %8 = load i32, ptr %7, align 4
  %9 = icmp ugt i32 %8, 1
  br i1 %9, label %10, label %11

10:                                               ; preds = %2
  tail call void @zend_wrong_parameters_count_error(i32 noundef 0, i32 noundef 1) #7
  br label %33

11:                                               ; preds = %2
  %12 = icmp eq i32 %8, 0
  br i1 %12, label %42, label %13

13:                                               ; preds = %11
  %14 = getelementptr inbounds i8, ptr %0, i64 80
  %15 = load ptr, ptr @random_ce_Random_Engine, align 8
  %16 = getelementptr inbounds i8, ptr %0, i64 88
  %17 = load i8, ptr %16, align 8
  %18 = icmp eq i8 %17, 8
  br i1 %18, label %19, label %.critedge

19:                                               ; preds = %13
  %.not = icmp eq ptr %15, null
  %.pre94 = load ptr, ptr %14, align 8
  br i1 %.not, label %34, label %20

20:                                               ; preds = %19
  %21 = getelementptr inbounds i8, ptr %.pre94, i64 16
  %22 = load ptr, ptr %21, align 8
  %23 = icmp eq ptr %22, %15
  br i1 %23, label %34, label %24

24:                                               ; preds = %20
  %25 = tail call zeroext i1 @instanceof_function_slow(ptr noundef %22, ptr noundef nonnull %15) #7
  br i1 %25, label %._crit_edge, label %..critedge_crit_edge

._crit_edge:                                      ; preds = %24
  %.pre93 = load ptr, ptr %14, align 8
  br label %34

..critedge_crit_edge:                             ; preds = %24
  %.pre = load i8, ptr %16, align 8
  br label %.critedge

.critedge:                                        ; preds = %..critedge_crit_edge, %13
  %26 = phi i8 [ %.pre, %..critedge_crit_edge ], [ %17, %13 ]
  %.not92 = icmp eq i8 %26, 1
  br i1 %.not92, label %42, label %27

27:                                               ; preds = %.critedge
  %28 = load ptr, ptr @random_ce_Random_Engine, align 8
  %.not74 = icmp eq ptr %28, null
  br i1 %.not74, label %33, label %29

29:                                               ; preds = %27
  %30 = getelementptr inbounds i8, ptr %28, i64 8
  %31 = load ptr, ptr %30, align 8
  %32 = getelementptr inbounds i8, ptr %31, i64 24
  br label %33

33:                                               ; preds = %10, %29, %27
  %.067 = phi ptr [ null, %10 ], [ %32, %29 ], [ null, %27 ]
  %.066 = phi i32 [ 0, %10 ], [ 0, %29 ], [ 19, %27 ]
  %.065 = phi i32 [ 1, %10 ], [ 4, %29 ], [ 9, %27 ]
  %.064 = phi ptr [ null, %10 ], [ %14, %29 ], [ %14, %27 ]
  %.063 = phi i32 [ 0, %10 ], [ 1, %29 ], [ 1, %27 ]
  tail call void @zend_wrong_parameter_error(i32 noundef %.065, i32 noundef %.063, ptr noundef %.067, i32 noundef %.066, ptr noundef %.064) #7
  br label %64

34:                                               ; preds = %._crit_edge, %20, %19
  %35 = phi ptr [ %.pre93, %._crit_edge ], [ %.pre94, %20 ], [ %.pre94, %19 ]
  %36 = load i32, ptr %16, align 8
  store ptr %35, ptr %3, align 8
  %37 = getelementptr inbounds i8, ptr %3, i64 8
  store i32 %36, ptr %37, align 8
  %38 = and i32 %36, 65280
  %.not77 = icmp eq i32 %38, 0
  br i1 %.not77, label %45, label %39

39:                                               ; preds = %34
  %40 = load i32, ptr %35, align 4
  %41 = add i32 %40, 1
  store i32 %41, ptr %35, align 4
  br label %45

42:                                               ; preds = %.critedge, %11
  %43 = load ptr, ptr @random_ce_Random_Engine_Secure, align 8
  %44 = call i32 @object_init_ex(ptr noundef nonnull %3, ptr noundef %43) #7
  br label %45

45:                                               ; preds = %39, %34, %42
  %46 = load ptr, ptr @random_ce_Random_Randomizer, align 8
  %47 = load ptr, ptr %4, align 8
  call void @zend_update_property(ptr noundef %46, ptr noundef %47, ptr noundef nonnull @.str, i64 noundef 6, ptr noundef nonnull %3) #7
  %48 = load ptr, ptr %3, align 8
  %49 = load i32, ptr %48, align 4
  %50 = icmp ne i32 %49, 0
  call void @llvm.assume(i1 %50)
  %51 = add i32 %49, -1
  store i32 %51, ptr %48, align 4
  %52 = icmp eq i32 %51, 0
  br i1 %52, label %53, label %54

53:                                               ; preds = %45
  call void @zend_objects_store_del(ptr noundef nonnull %48) #7
  br label %60

54:                                               ; preds = %45
  %55 = getelementptr inbounds i8, ptr %48, i64 4
  %56 = load i32, ptr %55, align 4
  %57 = and i32 %56, -1008
  %58 = icmp eq i32 %57, 0
  br i1 %58, label %59, label %60

59:                                               ; preds = %54
  call void @gc_possible_root(ptr noundef nonnull %48) #7
  br label %60

60:                                               ; preds = %54, %59, %53
  %61 = load ptr, ptr getelementptr inbounds (%struct._zend_executor_globals, ptr @executor_globals, i64 0, i32 50), align 8
  %.not78 = icmp eq ptr %61, null
  br i1 %.not78, label %62, label %64

62:                                               ; preds = %60
  %63 = load ptr, ptr %3, align 8
  call fastcc void @randomizer_common_init(ptr noundef nonnull %6, ptr noundef %63)
  br label %64

64:                                               ; preds = %60, %62, %33
  ret void
}